target datalayout = "e-m:e-p270:32:32-p271:32:32-p272:64:64-i64:64-i128:128-f80:128-n8:16:32:64-S128"
target triple = "x86_64-unknown-linux-gnu"

%"class.zmq::stream_connecter_base_t" = type { %"class.zmq::own_t.base", %"class.zmq::io_object_t", ptr, i32, ptr, %"class.std::__cxx11::basic_string", ptr, i8, i8, i32, ptr }
%"class.zmq::own_t.base" = type <{ %"class.zmq::object_t.base", [4 x i8], %"struct.zmq::options_t", i8, [7 x i8], %"class.zmq::atomic_counter_t", i64, ptr, %"class.std::set.28", i32 }>
%"class.zmq::object_t.base" = type <{ ptr, ptr, i32 }>
%"struct.zmq::options_t" = type { i32, i32, i64, i8, [256 x i8], i32, i32, i32, i32, i32, i32, i32, i32, i8, %"struct.zmq::atomic_value_t", i32, i32, i32, i32, i32, i32, i64, i32, i32, i8, i32, i8, i8, i8, i8, i8, %"class.std::__cxx11::basic_string", %"class.std::__cxx11::basic_string", %"class.std::__cxx11::basic_string", i32, i32, i32, i32, %"class.std::vector", %"class.std::set", %"class.std::set", %"class.std::set.6", i32, i32, %"class.std::__cxx11::basic_string", %"class.std::__cxx11::basic_string", %"class.std::__cxx11::basic_string", [32 x i8], [32 x i8], [32 x i8], %"class.std::__cxx11::basic_string", %"class.std::__cxx11::basic_string", i32, i32, i8, i32, i8, i32, i8, i16, i32, i32, i32, %"class.std::__cxx11::basic_string", i8, i8, i8, i32, i32, i8, i32, %"class.std::map", i32, %"class.std::__cxx11::basic_string", %"class.std::__cxx11::basic_string", %"class.std::__cxx11::basic_string", %"class.std::__cxx11::basic_string", i8, %"class.std::vector.21", i8, %"class.std::vector.21", i8, %"class.std::vector.21", i8, i32, i8, i32, i32, i32, i32, i32, i8, i32 }
%"struct.zmq::atomic_value_t" = type { %"struct.std::atomic" }
%"struct.std::atomic" = type { %"struct.std::__atomic_base" }
%"struct.std::__atomic_base" = type { i32 }
%"class.std::vector" = type { %"struct.std::_Vector_base" }
%"struct.std::_Vector_base" = type { %"struct.std::_Vector_base<zmq::tcp_address_mask_t, std::allocator<zmq::tcp_address_mask_t>>::_Vector_impl" }
%"struct.std::_Vector_base<zmq::tcp_address_mask_t, std::allocator<zmq::tcp_address_mask_t>>::_Vector_impl" = type { %"struct.std::_Vector_base<zmq::tcp_address_mask_t, std::allocator<zmq::tcp_address_mask_t>>::_Vector_impl_data" }
%"struct.std::_Vector_base<zmq::tcp_address_mask_t, std::allocator<zmq::tcp_address_mask_t>>::_Vector_impl_data" = type { ptr, ptr, ptr }
%"class.std::set" = type { %"class.std::_Rb_tree" }
%"class.std::_Rb_tree" = type { %"struct.std::_Rb_tree<unsigned int, unsigned int, std::_Identity<unsigned int>, std::less<unsigned int>>::_Rb_tree_impl" }
%"struct.std::_Rb_tree<unsigned int, unsigned int, std::_Identity<unsigned int>, std::less<unsigned int>>::_Rb_tree_impl" = type { %"struct.std::_Rb_tree_key_compare", %"struct.std::_Rb_tree_header" }
%"struct.std::_Rb_tree_key_compare" = type { %"struct.std::less" }
%"struct.std::less" = type { i8 }
%"struct.std::_Rb_tree_header" = type { %"struct.std::_Rb_tree_node_base", i64 }
%"struct.std::_Rb_tree_node_base" = type { i32, ptr, ptr, ptr }
%"class.std::set.6" = type { %"class.std::_Rb_tree.7" }
%"class.std::_Rb_tree.7" = type { %"struct.std::_Rb_tree<int, int, std::_Identity<int>, std::less<int>>::_Rb_tree_impl" }
%"struct.std::_Rb_tree<int, int, std::_Identity<int>, std::less<int>>::_Rb_tree_impl" = type { %"struct.std::_Rb_tree_key_compare.11", %"struct.std::_Rb_tree_header" }
%"struct.std::_Rb_tree_key_compare.11" = type { %"struct.std::less.12" }
%"struct.std::less.12" = type { i8 }
%"class.std::map" = type { %"class.std::_Rb_tree.14" }
%"class.std::_Rb_tree.14" = type { %"struct.std::_Rb_tree<std::__cxx11::basic_string<char>, std::pair<const std::__cxx11::basic_string<char>, std::__cxx11::basic_string<char>>, std::_Select1st<std::pair<const std::__cxx11::basic_string<char>, std::__cxx11::basic_string<char>>>, std::less<std::__cxx11::basic_string<char>>>::_Rb_tree_impl" }
%"struct.std::_Rb_tree<std::__cxx11::basic_string<char>, std::pair<const std::__cxx11::basic_string<char>, std::__cxx11::basic_string<char>>, std::_Select1st<std::pair<const std::__cxx11::basic_string<char>, std::__cxx11::basic_string<char>>>, std::less<std::__cxx11::basic_string<char>>>::_Rb_tree_impl" = type { %"struct.std::_Rb_tree_key_compare.18", %"struct.std::_Rb_tree_header" }
%"struct.std::_Rb_tree_key_compare.18" = type { %"struct.std::less.19" }
%"struct.std::less.19" = type { i8 }
%"class.std::vector.21" = type { %"struct.std::_Vector_base.22" }
%"struct.std::_Vector_base.22" = type { %"struct.std::_Vector_base<unsigned char, std::allocator<unsigned char>>::_Vector_impl" }
%"struct.std::_Vector_base<unsigned char, std::allocator<unsigned char>>::_Vector_impl" = type { %"struct.std::_Vector_base<unsigned char, std::allocator<unsigned char>>::_Vector_impl_data" }
%"struct.std::_Vector_base<unsigned char, std::allocator<unsigned char>>::_Vector_impl_data" = type { ptr, ptr, ptr }
%"class.zmq::atomic_counter_t" = type { %"struct.std::atomic.26", [4 x i8] }
%"struct.std::atomic.26" = type { %"struct.std::__atomic_base.27" }
%"struct.std::__atomic_base.27" = type { i32 }
%"class.std::set.28" = type { %"class.std::_Rb_tree.29" }
%"class.std::_Rb_tree.29" = type { %"struct.std::_Rb_tree<zmq::own_t *, zmq::own_t *, std::_Identity<zmq::own_t *>, std::less<zmq::own_t *>>::_Rb_tree_impl" }
%"struct.std::_Rb_tree<zmq::own_t *, zmq::own_t *, std::_Identity<zmq::own_t *>, std::less<zmq::own_t *>>::_Rb_tree_impl" = type { %"struct.std::_Rb_tree_key_compare.33", %"struct.std::_Rb_tree_header" }
%"struct.std::_Rb_tree_key_compare.33" = type { %"struct.std::less.34" }
%"struct.std::less.34" = type { i8 }
%"class.zmq::io_object_t" = type { %"struct.zmq::i_poll_events", ptr }
%"struct.zmq::i_poll_events" = type { ptr }
%"class.std::__cxx11::basic_string" = type { %"struct.std::__cxx11::basic_string<char>::_Alloc_hider", i64, %union.anon }
%"struct.std::__cxx11::basic_string<char>::_Alloc_hider" = type { ptr }
%union.anon = type { i64, [8 x i8] }
%"class.zmq::own_t" = type <{ %"class.zmq::object_t.base", [4 x i8], %"struct.zmq::options_t", i8, [7 x i8], %"class.zmq::atomic_counter_t", i64, ptr, %"class.std::set.28", i32, [4 x i8] }>

@stderr = external global ptr, align 8
@.str.2 = private unnamed_addr constant [115 x i8] c"generated/home/dtcxzyw/WorkSpace/Projects/compilers/llvm-opt-benchmark/bench/libzmq/libzmq/src/socks_connecter.cpp\00", align 1
@.str.13 = private unnamed_addr constant [12 x i8] c"%s (%s:%d)\0A\00", align 1

; Function Attrs: mustprogress uwtable
define noundef i32 @_ZNK3zmq17socks_connecter_t22check_proxy_connectionEv(ptr noundef nonnull align 8 dereferenceable(3032) %this) #0 align 2 {
entry:
  %retval = alloca i32, align 4
  %this.addr = alloca ptr, align 8
  %err = alloca i32, align 4
  %len = alloca i32, align 4
  %rc = alloca i32, align 4
  %errstr = alloca ptr, align 8
  store ptr %this, ptr %this.addr, align 8
  %this1 = load ptr, ptr %this.addr, align 8
  store i32 0, ptr %err, align 4
  store i32 4, ptr %len, align 4
  %_s = getelementptr inbounds %"class.zmq::stream_connecter_base_t", ptr %this1, i32 0, i32 3
  %0 = load i32, ptr %_s, align 8
  %call = call i32 @getsockopt(i32 noundef %0, i32 noundef 1, i32 noundef 4, ptr noundef %err, ptr noundef %len) #10
  store i32 %call, ptr %rc, align 4
  %1 = load i32, ptr %rc, align 4
  %cmp = icmp eq i32 %1, -1
  br i1 %cmp, label %if.then, label %if.end

if.then:                                          ; preds = %entry
  %call2 = call ptr @__errno_location() #12
  %2 = load i32, ptr %call2, align 4
  store i32 %2, ptr %err, align 4
  br label %if.end

if.end:                                           ; preds = %if.then, %entry
  %3 = load i32, ptr %err, align 4
  %cmp3 = icmp ne i32 %3, 0
  br i1 %cmp3, label %if.then4, label %if.end30

if.then4:                                         ; preds = %if.end
  %4 = load i32, ptr %err, align 4
  %call5 = call ptr @__errno_location() #12
  store i32 %4, ptr %call5, align 4
  br label %do.body

do.body:                                          ; preds = %if.then4
  %call6 = call ptr @__errno_location() #12
  %5 = load i32, ptr %call6, align 4
  %cmp7 = icmp eq i32 %5, 111
  br i1 %cmp7, label %lor.end, label %lor.lhs.false

lor.lhs.false:                                    ; preds = %do.body
  %call8 = call ptr @__errno_location() #12
  %6 = load i32, ptr %call8, align 4
  %cmp9 = icmp eq i32 %6, 104
  br i1 %cmp9, label %lor.end, label %lor.lhs.false10

lor.lhs.false10:                                  ; preds = %lor.lhs.false
  %call11 = call ptr @__errno_location() #12
  %7 = load i32, ptr %call11, align 4
  %cmp12 = icmp eq i32 %7, 110
  br i1 %cmp12, label %lor.end, label %lor.lhs.false13

lor.lhs.false13:                                  ; preds = %lor.lhs.false10
  %call14 = call ptr @__errno_location() #12
  %8 = load i32, ptr %call14, align 4
  %cmp15 = icmp eq i32 %8, 113
  br i1 %cmp15, label %lor.end, label %lor.lhs.false16

lor.lhs.false16:                                  ; preds = %lor.lhs.false13
  %call17 = call ptr @__errno_location() #12
  %9 = load i32, ptr %call17, align 4
  %cmp18 = icmp eq i32 %9, 101
  br i1 %cmp18, label %lor.end, label %lor.lhs.false19

lor.lhs.false19:                                  ; preds = %lor.lhs.false16
  %call20 = call ptr @__errno_location() #12
  %10 = load i32, ptr %call20, align 4
  %cmp21 = icmp eq i32 %10, 100
  br i1 %cmp21, label %lor.end, label %lor.rhs

lor.rhs:                                          ; preds = %lor.lhs.false19
  %call22 = call ptr @__errno_location() #12
  %11 = load i32, ptr %call22, align 4
  %cmp23 = icmp eq i32 %11, 22
  br label %lor.end

lor.end:                                          ; preds = %lor.rhs, %lor.lhs.false19, %lor.lhs.false16, %lor.lhs.false13, %lor.lhs.false10, %lor.lhs.false, %do.body
  %12 = phi i1 [ true, %lor.lhs.false19 ], [ true, %lor.lhs.false16 ], [ true, %lor.lhs.false13 ], [ true, %lor.lhs.false10 ], [ true, %lor.lhs.false ], [ true, %do.body ], [ %cmp23, %lor.rhs ]
  %lnot = xor i1 %12, true
  br i1 %lnot, label %if.then24, label %if.end29

if.then24:                                        ; preds = %lor.end
  %call25 = call ptr @__errno_location() #12
  %13 = load i32, ptr %call25, align 4
  %call26 = call ptr @strerror(i32 noundef %13) #10
  store ptr %call26, ptr %errstr, align 8
  %14 = load ptr, ptr @stderr, align 8
  %15 = load ptr, ptr %errstr, align 8
  %call27 = call i32 (ptr, ptr, ...) @fprintf(ptr noundef %14, ptr noundef @.str.13, ptr noundef %15, ptr noundef @.str.2, i32 noundef 355)
  %16 = load ptr, ptr @stderr, align 8
  %call28 = call i32 @fflush(ptr noundef %16)
  %17 = load ptr, ptr %errstr, align 8
  call void @_ZN3zmq9zmq_abortEPKc(ptr noundef %17)
  br label %if.end29

if.end29:                                         ; preds = %if.then24, %lor.end
  br label %do.end

do.end:                                           ; preds = %if.end29
  store i32 -1, ptr %retval, align 4
  br label %return

if.end30:                                         ; preds = %if.end
  %_s31 = getelementptr inbounds %"class.zmq::stream_connecter_base_t", ptr %this1, i32 0, i32 3
  %18 = load i32, ptr %_s31, align 8
  %call32 = call noundef i32 @_ZN3zmq15tune_tcp_socketEi(i32 noundef %18)
  store i32 %call32, ptr %rc, align 4
  %19 = load i32, ptr %rc, align 4
  %_s33 = getelementptr inbounds %"class.zmq::stream_connecter_base_t", ptr %this1, i32 0, i32 3
  %20 = load i32, ptr %_s33, align 8
  %options = getelementptr inbounds %"class.zmq::own_t", ptr %this1, i32 0, i32 2
  %tcp_keepalive = getelementptr inbounds %"struct.zmq::options_t", ptr %options, i32 0, i32 34
  %21 = load i32, ptr %tcp_keepalive, align 8
  %options34 = getelementptr inbounds %"class.zmq::own_t", ptr %this1, i32 0, i32 2
  %tcp_keepalive_cnt = getelementptr inbounds %"struct.zmq::options_t", ptr %options34, i32 0, i32 35
  %22 = load i32, ptr %tcp_keepalive_cnt, align 4
  %options35 = getelementptr inbounds %"class.zmq::own_t", ptr %this1, i32 0, i32 2
  %tcp_keepalive_idle = getelementptr inbounds %"struct.zmq::options_t", ptr %options35, i32 0, i32 36
  %23 = load i32, ptr %tcp_keepalive_idle, align 8
  %options36 = getelementptr inbounds %"class.zmq::own_t", ptr %this1, i32 0, i32 2
  %tcp_keepalive_intvl = getelementptr inbounds %"struct.zmq::options_t", ptr %options36, i32 0, i32 37
  %24 = load i32, ptr %tcp_keepalive_intvl, align 4
  %call37 = call noundef i32 @_ZN3zmq19tune_tcp_keepalivesEiiiii(i32 noundef %20, i32 noundef %21, i32 noundef %22, i32 noundef %23, i32 noundef %24)
  %or = or i32 %19, %call37
  store i32 %or, ptr %rc, align 4
  %25 = load i32, ptr %rc, align 4
  %cmp38 = icmp ne i32 %25, 0
  br i1 %cmp38, label %if.then39, label %if.end40

if.then39:                                        ; preds = %if.end30
  store i32 -1, ptr %retval, align 4
  br label %return

if.end40:                                         ; preds = %if.end30
  store i32 0, ptr %retval, align 4
  br label %return

return:                                           ; preds = %if.end40, %if.then39, %do.end
  %26 = load i32, ptr %retval, align 4
  ret i32 %26
}