; Function Attrs: mustprogress uwtable
define noundef i32 @_ZNK3zmq17socks_connecter_t22check_proxy_connectionEv(ptr nocapture noundef nonnull readonly align 8 dereferenceable(3032) %this) local_unnamed_addr #0 align 2 {
entry:
  %err = alloca i32, align 4
  %len = alloca i32, align 4
  store i32 0, ptr %err, align 4
  store i32 4, ptr %len, align 4
  %_s = getelementptr inbounds i8, ptr %this, i64 1472
  %0 = load i32, ptr %_s, align 8
  %call = call i32 @getsockopt(i32 noundef %0, i32 noundef 1, i32 noundef 4, ptr noundef nonnull %err, ptr noundef nonnull %len) #13
  %cmp = icmp eq i32 %call, -1
  br i1 %cmp, label %if.then, label %if.endthread-pre-split

if.then:                                          ; preds = %entry
  %call2 = tail call ptr @__errno_location() #16
  %1 = load i32, ptr %call2, align 4
  store i32 %1, ptr %err, align 4
  br label %if.end

if.endthread-pre-split:                           ; preds = %entry
  %.pr = load i32, ptr %err, align 4
  br label %if.end

if.end:                                           ; preds = %if.endthread-pre-split, %if.then
  %2 = phi i32 [ %.pr, %if.endthread-pre-split ], [ %1, %if.then ]
  %cmp3.not = icmp eq i32 %2, 0
  br i1 %cmp3.not, label %if.end30, label %if.then4

if.then4:                                         ; preds = %if.end
  %call5 = tail call ptr @__errno_location() #16
  store i32 %2, ptr %call5, align 4
  switch i32 %2, label %lor.rhs [
    i32 111, label %return
    i32 104, label %return
    i32 110, label %return
    i32 113, label %return
    i32 101, label %return
    i32 100, label %return
    i32 22, label %return
  ]

lor.rhs:                                          ; preds = %if.then4
  %call26 = call ptr @strerror(i32 noundef %2) #13
  %3 = load ptr, ptr @stderr, align 8
  %call27 = call i32 (ptr, ptr, ...) @fprintf(ptr noundef %3, ptr noundef nonnull @.str.13, ptr noundef %call26, ptr noundef nonnull @.str.2, i32 noundef 355) #14
  %4 = load ptr, ptr @stderr, align 8
  %call28 = call i32 @fflush(ptr noundef %4)
  call void @_ZN3zmq9zmq_abortEPKc(ptr noundef %call26)
  br label %return

if.end30:                                         ; preds = %if.end
  %5 = load i32, ptr %_s, align 8
  %call32 = call noundef i32 @_ZN3zmq15tune_tcp_socketEi(i32 noundef %5)
  %6 = load i32, ptr %_s, align 8
  %tcp_keepalive = getelementptr inbounds i8, ptr %this, i64 496
  %7 = load i32, ptr %tcp_keepalive, align 8
  %tcp_keepalive_cnt = getelementptr inbounds i8, ptr %this, i64 500
  %8 = load i32, ptr %tcp_keepalive_cnt, align 4
  %tcp_keepalive_idle = getelementptr inbounds i8, ptr %this, i64 504
  %9 = load i32, ptr %tcp_keepalive_idle, align 8
  %tcp_keepalive_intvl = getelementptr inbounds i8, ptr %this, i64 508
  %10 = load i32, ptr %tcp_keepalive_intvl, align 4
  %call37 = call noundef i32 @_ZN3zmq19tune_tcp_keepalivesEiiiii(i32 noundef %6, i32 noundef %7, i32 noundef %8, i32 noundef %9, i32 noundef %10)
  %or = or i32 %call37, %call32
  %cmp38.not = icmp ne i32 %or, 0
  %. = sext i1 %cmp38.not to i32
  br label %return

return:                                           ; preds = %if.then4, %if.end30, %lor.rhs, %if.then4, %if.then4, %if.then4, %if.then4, %if.then4, %if.then4
  %retval.0 = phi i32 [ -1, %if.then4 ], [ -1, %if.then4 ], [ -1, %if.then4 ], [ -1, %if.then4 ], [ -1, %if.then4 ], [ -1, %if.then4 ], [ -1, %lor.rhs ], [ %., %if.end30 ], [ -1, %if.then4 ]
  ret i32 %retval.0
}